; Function Attrs: mustprogress nofree norecurse nosync nounwind willreturn memory(argmem: write) uwtable
define void @Cec_ManChcSetDefaultParams(ptr noundef writeonly captures(none) initializes((0, 28)) %0) local_unnamed_addr #0 {
  store i32 15, ptr %0, align 4, !tbaa !60
  %2 = getelementptr inbounds nuw i8, ptr %0, i64 4
  store i32 15, ptr %2, align 4, !tbaa !62
  %3 = getelementptr inbounds nuw i8, ptr %0, i64 8
  store i32 1000, ptr %3, align 4, !tbaa !63
  %4 = getelementptr inbounds nuw i8, ptr %0, i64 12
  store i32 1, ptr %4, align 4, !tbaa !64
  %5 = getelementptr inbounds nuw i8, ptr %0, i64 16
  store i32 0, ptr %5, align 4, !tbaa !65
  %6 = getelementptr inbounds nuw i8, ptr %0, i64 20
  store i32 0, ptr %6, align 4, !tbaa !66
  %7 = getelementptr inbounds nuw i8, ptr %0, i64 24
  store i32 0, ptr %7, align 4, !tbaa !67
  ret void
}